target datalayout = "e-m:e-p270:32:32-p271:32:32-p272:64:64-i64:64-i128:128-f80:128-n8:16:32:64-S128"
target triple = "x86_64-pc-linux-gnu"

%struct._lv_anim_t = type { ptr, ptr, ptr, ptr, ptr, ptr, ptr, ptr, ptr, i32, i32, i32, i32, i32, i32, i32, i32, i32, %union._lv_anim_path_para_t, i32, i8 }
%union._lv_anim_path_para_t = type { %struct.lv_anim_bezier3_para_t }
%struct.lv_anim_bezier3_para_t = type { i16, i16, i16, i16 }

; Function Attrs: nounwind uwtable
define internal i32 @lv_anim_path_cubic_bezier(ptr noundef %0, i32 noundef %1, i32 noundef %2, i32 noundef %3, i32 noundef %4) #0 {
  %6 = alloca ptr, align 8
  %7 = alloca i32, align 4
  %8 = alloca i32, align 4
  %9 = alloca i32, align 4
  %10 = alloca i32, align 4
  %11 = alloca i32, align 4
  %12 = alloca i32, align 4
  %13 = alloca i32, align 4
  store ptr %0, ptr %6, align 8, !tbaa !21
  store i32 %1, ptr %7, align 4, !tbaa !26
  store i32 %2, ptr %8, align 4, !tbaa !26
  store i32 %3, ptr %9, align 4, !tbaa !26
  store i32 %4, ptr %10, align 4, !tbaa !26
  call void @llvm.lifetime.start.p0(i64 4, ptr %11) #4
  %14 = load ptr, ptr %6, align 8, !tbaa !21
  %15 = getelementptr inbounds nuw %struct._lv_anim_t, ptr %14, i32 0, i32 13
  %16 = load i32, ptr %15, align 8, !tbaa !27
  %17 = load ptr, ptr %6, align 8, !tbaa !21
  %18 = getelementptr inbounds nuw %struct._lv_anim_t, ptr %17, i32 0, i32 12
  %19 = load i32, ptr %18, align 4, !tbaa !32
  %20 = call i32 @lv_map(i32 noundef %16, i32 noundef 0, i32 noundef %19, i32 noundef 0, i32 noundef 1024)
  store i32 %20, ptr %11, align 4, !tbaa !26
  call void @llvm.lifetime.start.p0(i64 4, ptr %12) #4
  %21 = load i32, ptr %11, align 4, !tbaa !26
  %22 = load i32, ptr %7, align 4, !tbaa !26
  %23 = load i32, ptr %8, align 4, !tbaa !26
  %24 = load i32, ptr %9, align 4, !tbaa !26
  %25 = load i32, ptr %10, align 4, !tbaa !26
  %26 = call i32 @lv_cubic_bezier(i32 noundef %21, i32 noundef %22, i32 noundef %23, i32 noundef %24, i32 noundef %25)
  store i32 %26, ptr %12, align 4, !tbaa !26
  call void @llvm.lifetime.start.p0(i64 4, ptr %13) #4
  %27 = load i32, ptr %12, align 4, !tbaa !26
  %28 = load ptr, ptr %6, align 8, !tbaa !21
  %29 = getelementptr inbounds nuw %struct._lv_anim_t, ptr %28, i32 0, i32 11
  %30 = load i32, ptr %29, align 8, !tbaa !30
  %31 = load ptr, ptr %6, align 8, !tbaa !21
  %32 = getelementptr inbounds nuw %struct._lv_anim_t, ptr %31, i32 0, i32 9
  %33 = load i32, ptr %32, align 8, !tbaa !29
  %34 = sub nsw i32 %30, %33
  %35 = mul nsw i32 %27, %34
  store i32 %35, ptr %13, align 4, !tbaa !26
  %36 = load i32, ptr %13, align 4, !tbaa !26
  %37 = ashr i32 %36, 10
  store i32 %37, ptr %13, align 4, !tbaa !26
  %38 = load ptr, ptr %6, align 8, !tbaa !21
  %39 = getelementptr inbounds nuw %struct._lv_anim_t, ptr %38, i32 0, i32 9
  %40 = load i32, ptr %39, align 8, !tbaa !29
  %41 = load i32, ptr %13, align 4, !tbaa !26
  %42 = add nsw i32 %41, %40
  store i32 %42, ptr %13, align 4, !tbaa !26
  %43 = load i32, ptr %13, align 4, !tbaa !26
  call void @llvm.lifetime.end.p0(i64 4, ptr %13) #4
  call void @llvm.lifetime.end.p0(i64 4, ptr %12) #4
  call void @llvm.lifetime.end.p0(i64 4, ptr %11) #4
  ret i32 %43
}

; Function Attrs: nounwind uwtable
define i32 @lv_anim_path_ease_in_out(ptr noundef %0) #0 {
  %2 = alloca ptr, align 8
  store ptr %0, ptr %2, align 8, !tbaa !21
  %3 = load ptr, ptr %2, align 8, !tbaa !21
  %4 = call i32 @lv_anim_path_cubic_bezier(ptr noundef %3, i32 noundef 430, i32 noundef 0, i32 noundef 593, i32 noundef 1024)
  ret i32 %4
}